target datalayout = "e-m:e-p270:32:32-p271:32:32-p272:64:64-i64:64-i128:128-f80:128-n8:16:32:64-S128"
target triple = "x86_64-pc-linux-gnu"

%"class.draco::PointCloudDecoder" = type { ptr, ptr, %"class.std::vector", %"class.std::vector.0", ptr, i8, i8, ptr }
%"class.std::vector" = type { %"struct.std::_Vector_base" }
%"struct.std::_Vector_base" = type { %"struct.std::_Vector_base<std::unique_ptr<draco::AttributesDecoderInterface>, std::allocator<std::unique_ptr<draco::AttributesDecoderInterface>>>::_Vector_impl" }
%"struct.std::_Vector_base<std::unique_ptr<draco::AttributesDecoderInterface>, std::allocator<std::unique_ptr<draco::AttributesDecoderInterface>>>::_Vector_impl" = type { %"struct.std::_Vector_base<std::unique_ptr<draco::AttributesDecoderInterface>, std::allocator<std::unique_ptr<draco::AttributesDecoderInterface>>>::_Vector_impl_data" }
%"struct.std::_Vector_base<std::unique_ptr<draco::AttributesDecoderInterface>, std::allocator<std::unique_ptr<draco::AttributesDecoderInterface>>>::_Vector_impl_data" = type { ptr, ptr, ptr }
%"class.std::vector.0" = type { %"struct.std::_Vector_base.1" }
%"struct.std::_Vector_base.1" = type { %"struct.std::_Vector_base<int, std::allocator<int>>::_Vector_impl" }
%"struct.std::_Vector_base<int, std::allocator<int>>::_Vector_impl" = type { %"struct.std::_Vector_base<int, std::allocator<int>>::_Vector_impl_data" }
%"struct.std::_Vector_base<int, std::allocator<int>>::_Vector_impl_data" = type { ptr, ptr, ptr }
%"class.draco::DecoderBuffer" = type <{ ptr, i64, i64, %"class.draco::DecoderBuffer::BitDecoder", i8, i8, i16, [4 x i8] }>
%"class.draco::DecoderBuffer::BitDecoder" = type { ptr, ptr, i64 }
%"class.draco::PointCloud" = type <{ ptr, %"class.std::unique_ptr", %"class.std::vector.7", [5 x %"class.std::vector.0"], i32, [4 x i8] }>
%"class.std::unique_ptr" = type { %"struct.std::__uniq_ptr_data" }
%"struct.std::__uniq_ptr_data" = type { %"class.std::__uniq_ptr_impl" }
%"class.std::__uniq_ptr_impl" = type { %"class.std::tuple" }
%"class.std::tuple" = type { %"struct.std::_Tuple_impl" }
%"struct.std::_Tuple_impl" = type { %"struct.std::_Head_base.6" }
%"struct.std::_Head_base.6" = type { ptr }
%"class.std::vector.7" = type { %"struct.std::_Vector_base.8" }
%"struct.std::_Vector_base.8" = type { %"struct.std::_Vector_base<std::unique_ptr<draco::PointAttribute>, std::allocator<std::unique_ptr<draco::PointAttribute>>>::_Vector_impl" }
%"struct.std::_Vector_base<std::unique_ptr<draco::PointAttribute>, std::allocator<std::unique_ptr<draco::PointAttribute>>>::_Vector_impl" = type { %"struct.std::_Vector_base<std::unique_ptr<draco::PointAttribute>, std::allocator<std::unique_ptr<draco::PointAttribute>>>::_Vector_impl_data" }
%"struct.std::_Vector_base<std::unique_ptr<draco::PointAttribute>, std::allocator<std::unique_ptr<draco::PointAttribute>>>::_Vector_impl_data" = type { ptr, ptr, ptr }

; Function Attrs: mustprogress nounwind uwtable
define linkonce_odr noundef zeroext i1 @_ZN5draco13DecoderBuffer4PeekIiEEbPT_(ptr noundef nonnull align 8 dereferenceable(52) %0, ptr noundef %1) #6 comdat align 2 {
  %3 = alloca i1, align 1
  %4 = alloca ptr, align 8
  %5 = alloca ptr, align 8
  %6 = alloca i64, align 8
  %7 = alloca i32, align 4
  store ptr %0, ptr %4, align 8, !tbaa !27
  store ptr %1, ptr %5, align 8, !tbaa !28
  %8 = load ptr, ptr %4, align 8
  call void @llvm.lifetime.start.p0(i64 8, ptr %6) #3
  store i64 4, ptr %6, align 8, !tbaa !81
  %9 = getelementptr inbounds nuw %"class.draco::DecoderBuffer", ptr %8, i32 0, i32 1
  %10 = load i64, ptr %9, align 8, !tbaa !187
  %11 = getelementptr inbounds nuw %"class.draco::DecoderBuffer", ptr %8, i32 0, i32 2
  %12 = load i64, ptr %11, align 8, !tbaa !29
  %13 = add i64 %12, 4
  %14 = icmp slt i64 %10, %13
  br i1 %14, label %15, label %16

15:                                               ; preds = %2
  store i1 false, ptr %3, align 1
  store i32 1, ptr %7, align 4
  br label %23

16:                                               ; preds = %2
  %17 = load ptr, ptr %5, align 8, !tbaa !28
  %18 = getelementptr inbounds nuw %"class.draco::DecoderBuffer", ptr %8, i32 0, i32 0
  %19 = load ptr, ptr %18, align 8, !tbaa !188
  %20 = getelementptr inbounds nuw %"class.draco::DecoderBuffer", ptr %8, i32 0, i32 2
  %21 = load i64, ptr %20, align 8, !tbaa !29
  %22 = getelementptr inbounds i8, ptr %19, i64 %21
  call void @llvm.memcpy.p0.p0.i64(ptr align 4 %17, ptr align 1 %22, i64 4, i1 false)
  store i1 true, ptr %3, align 1
  store i32 1, ptr %7, align 4
  br label %23

23:                                               ; preds = %16, %15
  call void @llvm.lifetime.end.p0(i64 8, ptr %6) #3
  %24 = load i1, ptr %3, align 1
  ret i1 %24
}

; Function Attrs: mustprogress nounwind uwtable
define linkonce_odr void @_ZN5draco10PointCloud14set_num_pointsEj(ptr noundef nonnull align 8 dereferenceable(164) %0, i32 noundef %1) #6 comdat align 2 {
  %3 = alloca ptr, align 8
  %4 = alloca i32, align 4
  store ptr %0, ptr %3, align 8, !tbaa !37
  store i32 %1, ptr %4, align 4, !tbaa !8
  %5 = load ptr, ptr %3, align 8
  %6 = load i32, ptr %4, align 4, !tbaa !8
  %7 = getelementptr inbounds nuw %"class.draco::PointCloud", ptr %5, i32 0, i32 4
  store i32 %6, ptr %7, align 8, !tbaa !38
  ret void
}

; Function Attrs: mustprogress nounwind uwtable
define linkonce_odr noundef ptr @_ZN5draco17PointCloudDecoder11point_cloudEv(ptr noundef nonnull align 8 dereferenceable(88) %0) #6 comdat align 2 {
  %2 = alloca ptr, align 8
  store ptr %0, ptr %2, align 8, !tbaa !10
  %3 = load ptr, ptr %2, align 8
  %4 = getelementptr inbounds nuw %"class.draco::PointCloudDecoder", ptr %3, i32 0, i32 1
  %5 = load ptr, ptr %4, align 8, !tbaa !36
  ret ptr %5
}

; Function Attrs: mustprogress uwtable
define linkonce_odr noundef zeroext i1 @_ZN5draco13DecoderBuffer6DecodeIiEEbPT_(ptr noundef nonnull align 8 dereferenceable(52) %0, ptr noundef %1) #4 comdat align 2 {
  %3 = alloca i1, align 1
  %4 = alloca ptr, align 8
  %5 = alloca ptr, align 8
  store ptr %0, ptr %4, align 8, !tbaa !27
  store ptr %1, ptr %5, align 8, !tbaa !28
  %6 = load ptr, ptr %4, align 8
  %7 = load ptr, ptr %5, align 8, !tbaa !28
  %8 = call noundef zeroext i1 @_ZN5draco13DecoderBuffer4PeekIiEEbPT_(ptr noundef nonnull align 8 dereferenceable(52) %6, ptr noundef %7)
  br i1 %8, label %10, label %9

9:                                                ; preds = %2
  store i1 false, ptr %3, align 1
  br label %14

10:                                               ; preds = %2
  %11 = getelementptr inbounds nuw %"class.draco::DecoderBuffer", ptr %6, i32 0, i32 2
  %12 = load i64, ptr %11, align 8, !tbaa !29
  %13 = add i64 %12, 4
  store i64 %13, ptr %11, align 8, !tbaa !29
  store i1 true, ptr %3, align 1
  br label %14

14:                                               ; preds = %10, %9
  %15 = load i1, ptr %3, align 1
  ret i1 %15
}

; Function Attrs: mustprogress nounwind uwtable
define linkonce_odr noundef ptr @_ZN5draco17PointCloudDecoder6bufferEv(ptr noundef nonnull align 8 dereferenceable(88) %0) #6 comdat align 2 {
  %2 = alloca ptr, align 8
  store ptr %0, ptr %2, align 8, !tbaa !10
  %3 = load ptr, ptr %2, align 8
  %4 = getelementptr inbounds nuw %"class.draco::PointCloudDecoder", ptr %3, i32 0, i32 4
  %5 = load ptr, ptr %4, align 8, !tbaa !12
  ret ptr %5
}

; Function Attrs: mustprogress uwtable
define noundef zeroext i1 @_ZN5draco27PointCloudSequentialDecoder18DecodeGeometryDataEv(ptr noundef nonnull align 8 dereferenceable(88) %0) unnamed_addr #4 align 2 {
  %2 = alloca i1, align 1
  %3 = alloca ptr, align 8
  %4 = alloca i32, align 4
  %5 = alloca i32, align 4
  store ptr %0, ptr %3, align 8, !tbaa !3
  %6 = load ptr, ptr %3, align 8
  call void @llvm.lifetime.start.p0(i64 4, ptr %4) #3
  %7 = call noundef ptr @_ZN5draco17PointCloudDecoder6bufferEv(ptr noundef nonnull align 8 dereferenceable(88) %6)
  %8 = call noundef zeroext i1 @_ZN5draco13DecoderBuffer6DecodeIiEEbPT_(ptr noundef nonnull align 8 dereferenceable(52) %7, ptr noundef %4)
  br i1 %8, label %10, label %9

9:                                                ; preds = %1
  store i1 false, ptr %2, align 1
  store i32 1, ptr %5, align 4
  br label %13

10:                                               ; preds = %1
  %11 = call noundef ptr @_ZN5draco17PointCloudDecoder11point_cloudEv(ptr noundef nonnull align 8 dereferenceable(88) %6)
  %12 = load i32, ptr %4, align 4, !tbaa !8
  call void @_ZN5draco10PointCloud14set_num_pointsEj(ptr noundef nonnull align 8 dereferenceable(164) %11, i32 noundef %12)
  store i1 true, ptr %2, align 1
  store i32 1, ptr %5, align 4
  br label %13

13:                                               ; preds = %10, %9
  call void @llvm.lifetime.end.p0(i64 4, ptr %4) #3
  %14 = load i1, ptr %2, align 1
  ret i1 %14
}