; Function Attrs: mustprogress nofree norecurse nosync nounwind willreturn memory(readwrite, inaccessiblemem: none) uwtable
define noundef zeroext i1 @_ZN5draco27PointCloudSequentialDecoder18DecodeGeometryDataEv(ptr noundef nonnull readonly align 8 captures(none) dereferenceable(88) %0) unnamed_addr #3 align 2 {
  %2 = getelementptr inbounds nuw i8, ptr %0, i64 64
  %3 = load ptr, ptr %2, align 8, !tbaa !3
  %4 = getelementptr inbounds nuw i8, ptr %3, i64 8
  %5 = load i64, ptr %4, align 8, !tbaa !21
  %6 = getelementptr inbounds nuw i8, ptr %3, i64 16
  %7 = load i64, ptr %6, align 8, !tbaa !28
  %8 = add i64 %7, 4
  %9 = icmp sge i64 %5, %8
  br i1 %9, label %10, label %_ZN5draco13DecoderBuffer6DecodeIiEEbPT_.exit

10:                                               ; preds = %1
  %11 = load ptr, ptr %3, align 8, !tbaa !29
  %12 = getelementptr inbounds i8, ptr %11, i64 %7
  %13 = load i32, ptr %12, align 1
  store i64 %8, ptr %6, align 8, !tbaa !28
  %14 = getelementptr inbounds nuw i8, ptr %0, i64 8
  %15 = load ptr, ptr %14, align 8, !tbaa !30
  %16 = getelementptr inbounds nuw i8, ptr %15, i64 160
  store i32 %13, ptr %16, align 8, !tbaa !31
  br label %_ZN5draco13DecoderBuffer6DecodeIiEEbPT_.exit

_ZN5draco13DecoderBuffer6DecodeIiEEbPT_.exit:     ; preds = %1, %10
  ret i1 %9
}